target datalayout = "e-m:e-p270:32:32-p271:32:32-p272:64:64-i64:64-i128:128-f80:128-n8:16:32:64-S128"
target triple = "x86_64-pc-linux-gnu"

%class.DeviceContext = type { ptr }

$_ZNK13DeviceContext8activateEv = comdat any

@_ZN13DeviceContextC1ERK17DeviceInformation = unnamed_addr alias void (ptr, ptr), ptr @_ZN13DeviceContextC2ERK17DeviceInformation
@_ZN13DeviceContextD1Ev = unnamed_addr alias void (ptr), ptr @_ZN13DeviceContextD2Ev

; Function Attrs: mustprogress uwtable
define void @_ZN13DeviceContextC2ERK17DeviceInformation(ptr noundef nonnull align 8 dereferenceable(8) %0, ptr noundef nonnull align 1 %1) unnamed_addr #0 align 2 {
  %3 = alloca ptr, align 8
  %4 = alloca ptr, align 8
  store ptr %0, ptr %3, align 8
  store ptr %1, ptr %4, align 8
  %5 = load ptr, ptr %3, align 8
  %6 = getelementptr inbounds %class.DeviceContext, ptr %5, i32 0, i32 0
  %7 = load ptr, ptr %4, align 8
  store ptr %7, ptr %6, align 8
  call void @_ZNK13DeviceContext8activateEv(ptr noundef nonnull align 8 dereferenceable(8) %5)
  ret void
}

; Function Attrs: mustprogress uwtable
define linkonce_odr void @_ZNK13DeviceContext8activateEv(ptr noundef nonnull align 8 dereferenceable(8) %0) #0 comdat align 2 {
  %2 = alloca ptr, align 8
  store ptr %0, ptr %2, align 8
  %3 = load ptr, ptr %2, align 8
  %4 = getelementptr inbounds %class.DeviceContext, ptr %3, i32 0, i32 0
  %5 = load ptr, ptr %4, align 8
  call void @_Z15setActiveDeviceRK17DeviceInformation(ptr noundef nonnull align 1 %5)
  call void @_Z30pmallocSetDefaultDeviceContextPK13DeviceContext(ptr noundef %3)
  ret void
}

declare void @_Z15setActiveDeviceRK17DeviceInformation(ptr noundef nonnull align 1) #1

declare void @_Z30pmallocSetDefaultDeviceContextPK13DeviceContext(ptr noundef) #1

; Function Attrs: mustprogress nounwind uwtable
define void @_ZN13DeviceContextD2Ev(ptr noundef nonnull align 8 dereferenceable(8) %0) unnamed_addr #2 align 2 {
  %2 = alloca ptr, align 8
  store ptr %0, ptr %2, align 8
  ret void
}


!llvm.module.flags = !{!0, !1, !2, !3, !4}

!0 = !{i32 1, !"wchar_size", i32 4}
!1 = !{i32 7, !"openmp", i32 51}
!2 = !{i32 8, !"PIC Level", i32 2}
!3 = !{i32 7, !"uwtable", i32 2}
!4 = !{i32 7, !"frame-pointer", i32 2}
