; ModuleID = 'bench/gromacs/original/device_context.cpp.ll'
source_filename = "bench/gromacs/original/device_context.cpp.ll"
target datalayout = "e-m:e-p270:32:32-p271:32:32-p272:64:64-i64:64-i128:128-f80:128-n8:16:32:64-S128"
target triple = "x86_64-pc-linux-gnu"

@_ZN13DeviceContextC1ERK17DeviceInformation = unnamed_addr alias void (ptr, ptr), ptr @_ZN13DeviceContextC2ERK17DeviceInformation
@_ZN13DeviceContextD1Ev = unnamed_addr alias void (ptr), ptr @_ZN13DeviceContextD2Ev

; Function Attrs: mustprogress uwtable
define void @_ZN13DeviceContextC2ERK17DeviceInformation(ptr noundef nonnull align 8 dereferenceable(8) %0, ptr noundef nonnull align 1 %1) unnamed_addr #0 align 2 {
  store ptr %1, ptr %0, align 8
  tail call void @_Z15setActiveDeviceRK17DeviceInformation(ptr noundef nonnull align 1 %1)
  tail call void @_Z30pmallocSetDefaultDeviceContextPK13DeviceContext(ptr noundef nonnull %0)
  ret void
}

declare void @_Z15setActiveDeviceRK17DeviceInformation(ptr noundef nonnull align 1) local_unnamed_addr #1

declare void @_Z30pmallocSetDefaultDeviceContextPK13DeviceContext(ptr noundef) local_unnamed_addr #1

; Function Attrs: mustprogress nofree norecurse nosync nounwind willreturn memory(none) uwtable
define void @_ZN13DeviceContextD2Ev(ptr nocapture nonnull readnone align 8 %0) unnamed_addr #2 align 2 {
  ret void
}


!llvm.module.flags = !{!0, !1, !2, !3, !4}

!0 = !{i32 1, !"wchar_size", i32 4}
!1 = !{i32 7, !"openmp", i32 51}
!2 = !{i32 8, !"PIC Level", i32 2}
!3 = !{i32 7, !"uwtable", i32 2}
!4 = !{i32 7, !"frame-pointer", i32 2}
